
/home/milos/DOOM/mif_maker/build/functions/01_fib/01_fib:     file format elf32-littleriscv


Disassembly of section .text:

00000000 <_start>:
   0:	00001137          	lui	sp,0x1
   4:	084000ef          	jal	88 <main>

00000008 <fib>:
   8:	fe010113          	addi	sp,sp,-32 # fe0 <main+0xf58>
   c:	00112e23          	sw	ra,28(sp)
  10:	00812c23          	sw	s0,24(sp)
  14:	00912a23          	sw	s1,20(sp)
  18:	02010413          	addi	s0,sp,32
  1c:	fea42623          	sw	a0,-20(s0)
  20:	fec42783          	lw	a5,-20(s0)
  24:	00079663          	bnez	a5,30 <fib+0x28>
  28:	00000793          	li	a5,0
  2c:	0440006f          	j	70 <fib+0x68>
  30:	fec42703          	lw	a4,-20(s0)
  34:	00100793          	li	a5,1
  38:	00f71663          	bne	a4,a5,44 <fib+0x3c>
  3c:	00100793          	li	a5,1
  40:	0300006f          	j	70 <fib+0x68>
  44:	fec42783          	lw	a5,-20(s0)
  48:	fff78793          	addi	a5,a5,-1
  4c:	00078513          	mv	a0,a5
  50:	fb9ff0ef          	jal	8 <fib>
  54:	00050493          	mv	s1,a0
  58:	fec42783          	lw	a5,-20(s0)
  5c:	ffe78793          	addi	a5,a5,-2
  60:	00078513          	mv	a0,a5
  64:	fa5ff0ef          	jal	8 <fib>
  68:	00050793          	mv	a5,a0
  6c:	00f487b3          	add	a5,s1,a5
  70:	00078513          	mv	a0,a5
  74:	01c12083          	lw	ra,28(sp)
  78:	01812403          	lw	s0,24(sp)
  7c:	01412483          	lw	s1,20(sp)
  80:	02010113          	addi	sp,sp,32
  84:	00008067          	ret

00000088 <main>:
  88:	fe010113          	addi	sp,sp,-32
  8c:	00112e23          	sw	ra,28(sp)
  90:	00812c23          	sw	s0,24(sp)
  94:	02010413          	addi	s0,sp,32
  98:	00400793          	li	a5,4
  9c:	fef42623          	sw	a5,-20(s0)
  a0:	fec42503          	lw	a0,-20(s0)
  a4:	f65ff0ef          	jal	8 <fib>
  a8:	fea42423          	sw	a0,-24(s0)
  ac:	00078293          	mv	t0,a5
  b0:	fef42423          	sw	a5,-24(s0)
  b4:	00000013          	nop
  b8:	ffdff06f          	j	b4 <main+0x2c>
